; Function Attrs: mustprogress uwtable
define hidden noundef zeroext i1 @_ZNK19OpenColorIO_v2_4dev11Lut1DOpData6isNoOpEv(ptr noundef nonnull align 8 dereferenceable(364) %this) unnamed_addr #3 align 2 {
entry:
  %m_halfFlags.i = getelementptr inbounds i8, ptr %this, i64 224
  %0 = load i32, ptr %m_halfFlags.i, align 8
  %and.i.i = and i32 %0, 1
  %cmp.i.i.not = icmp eq i32 %and.i.i, 0
  br i1 %cmp.i.i.not, label %return, label %if.then

if.then:                                          ; preds = %entry
  %vtable = load ptr, ptr %this, align 8
  %vfn = getelementptr inbounds i8, ptr %vtable, i64 40
  %1 = load ptr, ptr %vfn, align 8
  %call2 = tail call noundef zeroext i1 %1(ptr noundef nonnull align 8 dereferenceable(364) %this)
  br label %return

return:                                           ; preds = %entry, %if.then
  %retval.0 = phi i1 [ %call2, %if.then ], [ false, %entry ]
  ret i1 %retval.0
}